; ModuleID = 'source-C-CXX/32/1932.c'
source_filename = "source-C-CXX/32/1932.c"
target datalayout = "e-m:e-p270:32:32-p271:32:32-p272:64:64-i64:64-f80:128-n8:16:32:64-S128"
target triple = "x86_64-pc-linux-gnu"

@.str = private unnamed_addr constant [3 x i8] c"%d\00", align 1
@.str.1 = private unnamed_addr constant [3 x i8] c"%s\00", align 1

; Function Attrs: nofree nounwind sspstrong uwtable
define dso_local i32 @main() local_unnamed_addr #0 {
  %1 = alloca [10000 x [255 x i8]], align 16
  %2 = alloca [10000 x [255 x i8]], align 16
  %3 = alloca i32, align 4
  %4 = getelementptr inbounds [10000 x [255 x i8]], [10000 x [255 x i8]]* %1, i64 0, i64 0, i64 0
  call void @llvm.lifetime.start.p0i8(i64 2550000, i8* nonnull %4) #5
  %5 = getelementptr inbounds [10000 x [255 x i8]], [10000 x [255 x i8]]* %2, i64 0, i64 0, i64 0
  call void @llvm.lifetime.start.p0i8(i64 2550000, i8* nonnull %5) #5
  %6 = bitcast i32* %3 to i8*
  call void @llvm.lifetime.start.p0i8(i64 4, i8* nonnull %6) #5
  %7 = call i32 (i8*, ...) @__isoc99_scanf(i8* getelementptr inbounds ([3 x i8], [3 x i8]* @.str, i64 0, i64 0), i32* nonnull %3)
  %8 = load i32, i32* %3, align 4, !tbaa !5
  %9 = icmp sgt i32 %8, 0
  br i1 %9, label %10, label %58

10:                                               ; preds = %0, %51
  %11 = phi i64 [ %54, %51 ], [ 0, %0 ]
  %12 = getelementptr inbounds [10000 x [255 x i8]], [10000 x [255 x i8]]* %1, i64 0, i64 %11, i64 0
  %13 = call i32 (i8*, ...) @__isoc99_scanf(i8* getelementptr inbounds ([3 x i8], [3 x i8]* @.str.1, i64 0, i64 0), i8* nonnull %12)
  %14 = call i64 @strlen(i8* noundef nonnull %12) #6
  %15 = trunc i64 %14 to i32
  %16 = icmp sgt i32 %15, 0
  br i1 %16, label %17, label %51

17:                                               ; preds = %10
  %18 = shl i64 %14, 32
  %19 = and i64 %14, 1
  %20 = icmp eq i64 %18, 4294967296
  br i1 %20, label %39, label %21

21:                                               ; preds = %17
  %22 = ashr exact i64 %18, 32
  %23 = sub nsw i64 %22, %19
  br label %24

24:                                               ; preds = %65, %21
  %25 = phi i64 [ 0, %21 ], [ %66, %65 ]
  %26 = phi i64 [ %23, %21 ], [ %67, %65 ]
  %27 = getelementptr inbounds [10000 x [255 x i8]], [10000 x [255 x i8]]* %1, i64 0, i64 %11, i64 %25
  %28 = load i8, i8* %27, align 1, !tbaa !9
  switch i8 %28, label %35 [
    i8 65, label %32
    i8 84, label %29
    i8 71, label %30
    i8 67, label %31
  ]

29:                                               ; preds = %24
  br label %32

30:                                               ; preds = %24
  br label %32

31:                                               ; preds = %24
  br label %32

32:                                               ; preds = %24, %31, %30, %29
  %33 = phi i8 [ 65, %29 ], [ 67, %30 ], [ 71, %31 ], [ 84, %24 ]
  %34 = getelementptr inbounds [10000 x [255 x i8]], [10000 x [255 x i8]]* %2, i64 0, i64 %11, i64 %25
  store i8 %33, i8* %34, align 1, !tbaa !9
  br label %35

35:                                               ; preds = %32, %24
  %36 = or i64 %25, 1
  %37 = getelementptr inbounds [10000 x [255 x i8]], [10000 x [255 x i8]]* %1, i64 0, i64 %11, i64 %36
  %38 = load i8, i8* %37, align 1, !tbaa !9
  switch i8 %38, label %65 [
    i8 65, label %62
    i8 84, label %61
    i8 71, label %60
    i8 67, label %59
  ]

39:                                               ; preds = %65, %17
  %40 = phi i64 [ 0, %17 ], [ %66, %65 ]
  %41 = icmp eq i64 %19, 0
  br i1 %41, label %51, label %42

42:                                               ; preds = %39
  %43 = getelementptr inbounds [10000 x [255 x i8]], [10000 x [255 x i8]]* %1, i64 0, i64 %11, i64 %40
  %44 = load i8, i8* %43, align 1, !tbaa !9
  switch i8 %44, label %51 [
    i8 65, label %48
    i8 84, label %47
    i8 71, label %46
    i8 67, label %45
  ]

45:                                               ; preds = %42
  br label %48

46:                                               ; preds = %42
  br label %48

47:                                               ; preds = %42
  br label %48

48:                                               ; preds = %47, %46, %45, %42
  %49 = phi i8 [ 65, %47 ], [ 67, %46 ], [ 71, %45 ], [ 84, %42 ]
  %50 = getelementptr inbounds [10000 x [255 x i8]], [10000 x [255 x i8]]* %2, i64 0, i64 %11, i64 %40
  store i8 %49, i8* %50, align 1, !tbaa !9
  br label %51

51:                                               ; preds = %39, %42, %48, %10
  %52 = getelementptr inbounds [10000 x [255 x i8]], [10000 x [255 x i8]]* %2, i64 0, i64 %11, i64 0
  %53 = call i32 @puts(i8* nonnull %52)
  %54 = add nuw nsw i64 %11, 1
  %55 = load i32, i32* %3, align 4, !tbaa !5
  %56 = sext i32 %55 to i64
  %57 = icmp slt i64 %54, %56
  br i1 %57, label %10, label %58, !llvm.loop !10

58:                                               ; preds = %51, %0
  call void @llvm.lifetime.end.p0i8(i64 4, i8* nonnull %6) #5
  call void @llvm.lifetime.end.p0i8(i64 2550000, i8* nonnull %5) #5
  call void @llvm.lifetime.end.p0i8(i64 2550000, i8* nonnull %4) #5
  ret i32 0

59:                                               ; preds = %35
  br label %62

60:                                               ; preds = %35
  br label %62

61:                                               ; preds = %35
  br label %62

62:                                               ; preds = %61, %60, %59, %35
  %63 = phi i8 [ 65, %61 ], [ 67, %60 ], [ 71, %59 ], [ 84, %35 ]
  %64 = getelementptr inbounds [10000 x [255 x i8]], [10000 x [255 x i8]]* %2, i64 0, i64 %11, i64 %36
  store i8 %63, i8* %64, align 1, !tbaa !9
  br label %65

65:                                               ; preds = %62, %35
  %66 = add nuw nsw i64 %25, 2
  %67 = add i64 %26, -2
  %68 = icmp eq i64 %67, 0
  br i1 %68, label %39, label %24, !llvm.loop !12
}

; Function Attrs: argmemonly mustprogress nofree nosync nounwind willreturn
declare void @llvm.lifetime.start.p0i8(i64 immarg, i8* nocapture) #1

; Function Attrs: nofree nounwind
declare noundef i32 @__isoc99_scanf(i8* nocapture noundef readonly, ...) local_unnamed_addr #2

; Function Attrs: argmemonly mustprogress nofree nounwind readonly willreturn
declare i64 @strlen(i8* nocapture) local_unnamed_addr #3

; Function Attrs: argmemonly mustprogress nofree nosync nounwind willreturn
declare void @llvm.lifetime.end.p0i8(i64 immarg, i8* nocapture) #1

; Function Attrs: nofree nounwind
declare noundef i32 @puts(i8* nocapture noundef readonly) local_unnamed_addr #4


!llvm.module.flags = !{!0, !1, !2, !3}
!llvm.ident = !{!4}

!0 = !{i32 1, !"wchar_size", i32 4}
!1 = !{i32 7, !"PIC Level", i32 2}
!2 = !{i32 7, !"PIE Level", i32 2}
!3 = !{i32 7, !"uwtable", i32 1}
!4 = !{!"clang version 13.0.0"}
!5 = !{!6, !6, i64 0}
!6 = !{!"int", !7, i64 0}
!7 = !{!"omnipotent char", !8, i64 0}
!8 = !{!"Simple C/C++ TBAA"}
!9 = !{!7, !7, i64 0}
!10 = distinct !{!10, !11}
!11 = !{!"llvm.loop.mustprogress"}
!12 = distinct !{!12, !11}
